target datalayout = "e-m:e-p270:32:32-p271:32:32-p272:64:64-i64:64-i128:128-f80:128-n8:16:32:64-S128"
target triple = "x86_64-pc-linux-gnu"

@stderr = external global ptr, align 8
@.str = private unnamed_addr constant [36 x i8] c"FATAL ERROR: OUT OF MEMORY (%s:%d)\0A\00", align 1
@.str.1 = private unnamed_addr constant [109 x i8] c"generated/home/dtcxzyw/WorkSpace/Projects/compilers/llvm-opt-benchmark/bench/libzmq/libzmq/src/zmq_utils.cpp\00", align 1
@.str.2 = private unnamed_addr constant [27 x i8] c"FATAL ERROR: OUT OF MEMORY\00", align 1

; Function Attrs: mustprogress uwtable
define ptr @zmq_stopwatch_start() #0 {
  %1 = alloca ptr, align 8
  call void @llvm.lifetime.start.p0(i64 8, ptr %1) #15
  %2 = call noalias ptr @malloc(i64 noundef 8) #16
  store ptr %2, ptr %1, align 8, !tbaa !7
  br label %3

3:                                                ; preds = %0
  %4 = load ptr, ptr %1, align 8, !tbaa !7
  %5 = icmp ne ptr %4, null
  %6 = xor i1 %5, true
  %7 = zext i1 %6 to i64
  %8 = call i64 @llvm.expect.i64(i64 %7, i64 0)
  %9 = icmp ne i64 %8, 0
  br i1 %9, label %10, label %15

10:                                               ; preds = %3
  %11 = load ptr, ptr @stderr, align 8, !tbaa !10
  %12 = call i32 (ptr, ptr, ...) @fprintf(ptr noundef %11, ptr noundef @.str, ptr noundef @.str.1, i32 noundef 35) #15
  %13 = load ptr, ptr @stderr, align 8, !tbaa !10
  %14 = call i32 @fflush(ptr noundef %13)
  call void @_ZN3zmq9zmq_abortEPKc(ptr noundef @.str.2)
  br label %15

15:                                               ; preds = %10, %3
  br label %16

16:                                               ; preds = %15
  br label %17

17:                                               ; preds = %16
  %18 = call noundef i64 @_ZN3zmq7clock_t6now_usEv()
  %19 = load ptr, ptr %1, align 8, !tbaa !7
  store i64 %18, ptr %19, align 8, !tbaa !12
  %20 = load ptr, ptr %1, align 8, !tbaa !7
  call void @llvm.lifetime.end.p0(i64 8, ptr %1) #15
  ret ptr %20
}