; Function Attrs: mustprogress uwtable
define noalias noundef ptr @zmq_stopwatch_start() local_unnamed_addr #0 {
  %1 = tail call noalias dereferenceable_or_null(8) ptr @malloc(i64 noundef 8) #18
  %.not = icmp eq ptr %1, null
  br i1 %.not, label %2, label %7, !prof !3

2:                                                ; preds = %0
  %3 = load ptr, ptr @stderr, align 8, !tbaa !4
  %4 = tail call i32 (ptr, ptr, ...) @fprintf(ptr noundef %3, ptr noundef nonnull @.str, ptr noundef nonnull @.str.1, i32 noundef 35) #19
  %5 = load ptr, ptr @stderr, align 8, !tbaa !4
  %6 = tail call i32 @fflush(ptr noundef %5)
  tail call void @_ZN3zmq9zmq_abortEPKc(ptr noundef nonnull @.str.2)
  br label %7

7:                                                ; preds = %2, %0
  %8 = tail call noundef i64 @_ZN3zmq7clock_t6now_usEv()
  store i64 %8, ptr %1, align 8, !tbaa !9
  ret ptr %1
}